target datalayout = "e-m:e-p270:32:32-p271:32:32-p272:64:64-i64:64-i128:128-f80:128-n8:16:32:64-S128"
target triple = "x86_64-pc-linux-gnu"

%"class.std::__cxx11::basic_string" = type { %"struct.std::__cxx11::basic_string<char>::_Alloc_hider", i64, %union.anon }
%"struct.std::__cxx11::basic_string<char>::_Alloc_hider" = type { ptr }
%union.anon = type { i64, [8 x i8] }
%"class.Yosys::hashlib::dict" = type <{ %"class.std::vector.3", %"class.std::vector.13", %"struct.Yosys::hashlib::hash_ops.18", [7 x i8] }>
%"class.std::vector.3" = type { %"struct.std::_Vector_base.4" }
%"struct.std::_Vector_base.4" = type { %"struct.std::_Vector_base<int, std::allocator<int>>::_Vector_impl" }
%"struct.std::_Vector_base<int, std::allocator<int>>::_Vector_impl" = type { %"struct.std::_Vector_base<int, std::allocator<int>>::_Vector_impl_data" }
%"struct.std::_Vector_base<int, std::allocator<int>>::_Vector_impl_data" = type { ptr, ptr, ptr }
%"class.std::vector.13" = type { %"struct.std::_Vector_base.14" }
%"struct.std::_Vector_base.14" = type { %"struct.std::_Vector_base<Yosys::hashlib::dict<std::__cxx11::basic_string<char>, std::__cxx11::basic_string<char>>::entry_t, std::allocator<Yosys::hashlib::dict<std::__cxx11::basic_string<char>, std::__cxx11::basic_string<char>>::entry_t>>::_Vector_impl" }
%"struct.std::_Vector_base<Yosys::hashlib::dict<std::__cxx11::basic_string<char>, std::__cxx11::basic_string<char>>::entry_t, std::allocator<Yosys::hashlib::dict<std::__cxx11::basic_string<char>, std::__cxx11::basic_string<char>>::entry_t>>::_Vector_impl" = type { %"struct.std::_Vector_base<Yosys::hashlib::dict<std::__cxx11::basic_string<char>, std::__cxx11::basic_string<char>>::entry_t, std::allocator<Yosys::hashlib::dict<std::__cxx11::basic_string<char>, std::__cxx11::basic_string<char>>::entry_t>>::_Vector_impl_data" }
%"struct.std::_Vector_base<Yosys::hashlib::dict<std::__cxx11::basic_string<char>, std::__cxx11::basic_string<char>>::entry_t, std::allocator<Yosys::hashlib::dict<std::__cxx11::basic_string<char>, std::__cxx11::basic_string<char>>::entry_t>>::_Vector_impl_data" = type { ptr, ptr, ptr }
%"struct.Yosys::hashlib::hash_ops.18" = type { i8 }
%"class.std::allocator" = type { i8 }

@.str.106 = private unnamed_addr constant [4 x i8] c"300\00", align 1
@_ZN5Yosys5RTLIL8constpadB5cxx11E = external global %"class.Yosys::hashlib::dict", align 8
@.str.107 = private unnamed_addr constant [21 x i8] c"synth_lattice.abc9.W\00", align 1

; Function Attrs: mustprogress uwtable
define internal void @_ZN12_GLOBAL__N_116SynthLatticePass11on_registerEv(ptr noundef nonnull align 8 dereferenceable(456) %0) unnamed_addr #4 align 2 personality ptr @__gxx_personality_v0 {
  %2 = alloca ptr, align 8
  %3 = alloca %"class.std::__cxx11::basic_string", align 8
  %4 = alloca %"class.std::allocator", align 1
  %5 = alloca ptr, align 8
  %6 = alloca i32, align 4
  store ptr %0, ptr %2, align 8
  call void @_ZNSaIcEC1Ev(ptr noundef nonnull align 1 dereferenceable(1) %4) #3
  invoke void @_ZNSt7__cxx1112basic_stringIcSt11char_traitsIcESaIcEEC1EPKcRKS3_(ptr noundef nonnull align 8 dereferenceable(32) %3, ptr noundef @.str.107, ptr noundef nonnull align 1 dereferenceable(1) %4)
          to label %7 unwind label %12

7:                                                ; preds = %1
  %8 = invoke noundef nonnull align 8 dereferenceable(32) ptr @_ZN5Yosys7hashlib4dictINSt7__cxx1112basic_stringIcSt11char_traitsIcESaIcEEES7_NS0_8hash_opsIS7_EEEixERKS7_(ptr noundef nonnull align 8 dereferenceable(49) @_ZN5Yosys5RTLIL8constpadB5cxx11E, ptr noundef nonnull align 8 dereferenceable(32) %3)
          to label %9 unwind label %16

9:                                                ; preds = %7
  %10 = invoke noundef nonnull align 8 dereferenceable(32) ptr @_ZNSt7__cxx1112basic_stringIcSt11char_traitsIcESaIcEEaSEPKc(ptr noundef nonnull align 8 dereferenceable(32) %8, ptr noundef @.str.106)
          to label %11 unwind label %16

11:                                               ; preds = %9
  call void @_ZNSt7__cxx1112basic_stringIcSt11char_traitsIcESaIcEED1Ev(ptr noundef nonnull align 8 dereferenceable(32) %3) #3
  call void @_ZNSaIcED1Ev(ptr noundef nonnull align 1 dereferenceable(1) %4) #3
  ret void

12:                                               ; preds = %1
  %13 = landingpad { ptr, i32 }
          cleanup
  %14 = extractvalue { ptr, i32 } %13, 0
  store ptr %14, ptr %5, align 8
  %15 = extractvalue { ptr, i32 } %13, 1
  store i32 %15, ptr %6, align 4
  br label %20

16:                                               ; preds = %9, %7
  %17 = landingpad { ptr, i32 }
          cleanup
  %18 = extractvalue { ptr, i32 } %17, 0
  store ptr %18, ptr %5, align 8
  %19 = extractvalue { ptr, i32 } %17, 1
  store i32 %19, ptr %6, align 4
  call void @_ZNSt7__cxx1112basic_stringIcSt11char_traitsIcESaIcEED1Ev(ptr noundef nonnull align 8 dereferenceable(32) %3) #3
  br label %20

20:                                               ; preds = %16, %12
  call void @_ZNSaIcED1Ev(ptr noundef nonnull align 1 dereferenceable(1) %4) #3
  br label %21

21:                                               ; preds = %20
  %22 = load ptr, ptr %5, align 8
  %23 = load i32, ptr %6, align 4
  %24 = insertvalue { ptr, i32 } poison, ptr %22, 0
  %25 = insertvalue { ptr, i32 } %24, i32 %23, 1
  resume { ptr, i32 } %25
}